target datalayout = "e-m:e-p270:32:32-p271:32:32-p272:64:64-i64:64-i128:128-f80:128-n8:16:32:64-S128"
target triple = "x86_64-pc-linux-gnu"

@hf_afs_vol_id = internal global i32 0, align 4
@hf_afs_vol_count = internal global i32 0, align 4

; Function Attrs: null_pointer_is_valid sspstrong uwtable
define internal void @dissect_vol_request(ptr noundef %0, ptr noundef %1, i32 noundef %2) #0 {
  %4 = alloca ptr, align 8
  %5 = alloca ptr, align 8
  %6 = alloca i32, align 4
  store ptr %0, ptr %4, align 8
  store ptr %1, ptr %5, align 8
  store i32 %2, ptr %6, align 4
  %7 = load ptr, ptr %4, align 8
  call void @ptvcursor_advance(ptr noundef %7, i32 noundef 4)
  %8 = load i32, ptr %6, align 4
  switch i32 %8, label %16 [
    i32 121, label %9
  ]

9:                                                ; preds = %3
  %10 = load ptr, ptr %4, align 8
  %11 = load i32, ptr @hf_afs_vol_count, align 4
  %12 = call ptr @ptvcursor_add(ptr noundef %10, i32 noundef %11, i32 noundef 4, i32 noundef 0)
  %13 = load ptr, ptr %4, align 8
  %14 = load i32, ptr @hf_afs_vol_id, align 4
  %15 = call ptr @ptvcursor_add(ptr noundef %13, i32 noundef %14, i32 noundef 4, i32 noundef 0)
  br label %16

16:                                               ; preds = %3, %9
  ret void
}