; Function Attrs: null_pointer_is_valid sspstrong uwtable
define internal void @dissect_vol_request(ptr noundef %0, ptr readnone captures(none) %1, i32 noundef %2) #0 {
  tail call void @ptvcursor_advance(ptr noundef %0, i32 noundef 4)
  %cond = icmp eq i32 %2, 121
  br i1 %cond, label %4, label %9

4:                                                ; preds = %3
  %5 = load i32, ptr @hf_afs_vol_count, align 4
  %6 = tail call ptr @ptvcursor_add(ptr noundef %0, i32 noundef %5, i32 noundef 4, i32 noundef 0)
  %7 = load i32, ptr @hf_afs_vol_id, align 4
  %8 = tail call ptr @ptvcursor_add(ptr noundef %0, i32 noundef %7, i32 noundef 4, i32 noundef 0)
  br label %9

9:                                                ; preds = %3, %4
  ret void
}